; Function Attrs: mustprogress uwtable
define internal void @_ZN7rocksdb12_GLOBAL__N_115InMemoryHandler7MergeCFEjRKNS_5SliceES4_(ptr dead_on_unwind noalias writable writeonly sret(%"class.rocksdb::Status") align 8 captures(none) initializes((0, 6), (8, 16)) %0, ptr noundef nonnull align 8 dereferenceable(72) %1, i32 noundef %2, ptr noundef nonnull align 8 dereferenceable(16) %3, ptr noundef nonnull align 8 dereferenceable(16) %4) unnamed_addr #5 align 2 personality ptr @__gxx_personality_v0 {
  %6 = getelementptr inbounds nuw i8, ptr %1, i64 8
  %7 = load ptr, ptr %6, align 8, !tbaa !2625
  %8 = getelementptr inbounds nuw i8, ptr %7, i64 16
  %9 = tail call noundef nonnull align 8 dereferenceable(8) ptr @_ZSt16__ostream_insertIcSt11char_traitsIcEERSt13basic_ostreamIT_T0_ES6_PKS3_l(ptr noundef nonnull align 8 dereferenceable(8) %8, ptr noundef nonnull @.str.580, i64 noundef 6)
  %10 = zext i32 %2 to i64
  %11 = tail call noundef nonnull align 8 dereferenceable(8) ptr @_ZNSo9_M_insertImEERSoT_(ptr noundef nonnull align 8 dereferenceable(8) %8, i64 noundef %10)
  %12 = tail call noundef nonnull align 8 dereferenceable(8) ptr @_ZSt16__ostream_insertIcSt11char_traitsIcEERSt13basic_ostreamIT_T0_ES6_PKS3_l(ptr noundef nonnull align 8 dereferenceable(8) %11, ptr noundef nonnull @.str.572, i64 noundef 4)
  tail call fastcc void @_ZN7rocksdb12_GLOBAL__N_115InMemoryHandler14commonPutMergeEjRKNS_5SliceES4_(ptr noundef nonnull align 8 dereferenceable(72) %1, i32 noundef %2, ptr noundef nonnull align 8 dereferenceable(16) %3, ptr noundef nonnull align 8 dereferenceable(16) %4)
  %13 = getelementptr inbounds nuw i8, ptr %0, i64 8
  store ptr null, ptr %13, align 8, !tbaa !314, !alias.scope !2642
  tail call void @llvm.memset.p0.i64(ptr noundef nonnull align 8 dereferenceable(16) %0, i8 0, i64 6, i1 false), !alias.scope !2642
  ret void
}